; ModuleID = '46/2136.c'
source_filename = "46/2136.c"
target datalayout = "e-m:e-p270:32:32-p271:32:32-p272:64:64-i64:64-f80:128-n8:16:32:64-S128"
target triple = "x86_64-pc-linux-gnu"

@.str = private unnamed_addr constant [6 x i8] c"%d %d\00", align 1
@.str.1 = private unnamed_addr constant [3 x i8] c"%d\00", align 1
@.str.2 = private unnamed_addr constant [4 x i8] c"%d\0A\00", align 1

; Function Attrs: noinline nounwind uwtable
define dso_local void @main() #0 {
  %1 = alloca [100 x [100 x i32]], align 16
  %2 = alloca i32, align 4
  %3 = alloca i32, align 4
  %4 = alloca i32, align 4
  %5 = alloca i32, align 4
  %6 = alloca i32, align 4
  %7 = alloca i32, align 4
  store i32 1, i32* %2, align 4
  store i32 0, i32* %3, align 4
  %8 = call i32 (i8*, ...) @__isoc99_scanf(i8* getelementptr inbounds ([6 x i8], [6 x i8]* @.str, i64 0, i64 0), i32* %6, i32* %7)
  store i32 1, i32* %4, align 4
  br label %9

9:                                                ; preds = %30, %0
  %10 = load i32, i32* %4, align 4
  %11 = load i32, i32* %6, align 4
  %12 = icmp sle i32 %10, %11
  br i1 %12, label %13, label %33

13:                                               ; preds = %9
  store i32 1, i32* %5, align 4
  br label %14

14:                                               ; preds = %26, %13
  %15 = load i32, i32* %5, align 4
  %16 = load i32, i32* %7, align 4
  %17 = icmp sle i32 %15, %16
  br i1 %17, label %18, label %29

18:                                               ; preds = %14
  %19 = load i32, i32* %4, align 4
  %20 = sext i32 %19 to i64
  %21 = getelementptr inbounds [100 x [100 x i32]], [100 x [100 x i32]]* %1, i64 0, i64 %20
  %22 = load i32, i32* %5, align 4
  %23 = sext i32 %22 to i64
  %24 = getelementptr inbounds [100 x i32], [100 x i32]* %21, i64 0, i64 %23
  %25 = call i32 (i8*, ...) @__isoc99_scanf(i8* getelementptr inbounds ([3 x i8], [3 x i8]* @.str.1, i64 0, i64 0), i32* %24)
  br label %26

26:                                               ; preds = %18
  %27 = load i32, i32* %5, align 4
  %28 = add nsw i32 %27, 1
  store i32 %28, i32* %5, align 4
  br label %14

29:                                               ; preds = %14
  br label %30

30:                                               ; preds = %29
  %31 = load i32, i32* %4, align 4
  %32 = add nsw i32 %31, 1
  store i32 %32, i32* %4, align 4
  br label %9

33:                                               ; preds = %9
  store i32 1, i32* %4, align 4
  store i32 0, i32* %5, align 4
  br label %34

34:                                               ; preds = %33, %140
  %35 = load i32, i32* %3, align 4
  %36 = load i32, i32* %7, align 4
  %37 = icmp sge i32 %35, %36
  br i1 %37, label %38, label %39

38:                                               ; preds = %34
  br label %143

39:                                               ; preds = %34
  %40 = load i32, i32* %2, align 4
  store i32 %40, i32* %4, align 4
  %41 = load i32, i32* %5, align 4
  %42 = add nsw i32 %41, 1
  store i32 %42, i32* %5, align 4
  br label %43

43:                                               ; preds = %56, %39
  %44 = load i32, i32* %5, align 4
  %45 = load i32, i32* %7, align 4
  %46 = icmp sle i32 %44, %45
  br i1 %46, label %47, label %59

47:                                               ; preds = %43
  %48 = load i32, i32* %4, align 4
  %49 = sext i32 %48 to i64
  %50 = getelementptr inbounds [100 x [100 x i32]], [100 x [100 x i32]]* %1, i64 0, i64 %49
  %51 = load i32, i32* %5, align 4
  %52 = sext i32 %51 to i64
  %53 = getelementptr inbounds [100 x i32], [100 x i32]* %50, i64 0, i64 %52
  %54 = load i32, i32* %53, align 4
  %55 = call i32 (i8*, ...) @printf(i8* getelementptr inbounds ([4 x i8], [4 x i8]* @.str.2, i64 0, i64 0), i32 %54)
  br label %56

56:                                               ; preds = %47
  %57 = load i32, i32* %5, align 4
  %58 = add nsw i32 %57, 1
  store i32 %58, i32* %5, align 4
  br label %43

59:                                               ; preds = %43
  %60 = load i32, i32* %3, align 4
  %61 = add nsw i32 %60, 1
  store i32 %61, i32* %3, align 4
  %62 = load i32, i32* %2, align 4
  %63 = load i32, i32* %6, align 4
  %64 = icmp sge i32 %62, %63
  br i1 %64, label %65, label %66

65:                                               ; preds = %59
  br label %143

66:                                               ; preds = %59
  %67 = load i32, i32* %7, align 4
  store i32 %67, i32* %5, align 4
  %68 = load i32, i32* %4, align 4
  %69 = add nsw i32 %68, 1
  store i32 %69, i32* %4, align 4
  br label %70

70:                                               ; preds = %83, %66
  %71 = load i32, i32* %4, align 4
  %72 = load i32, i32* %6, align 4
  %73 = icmp sle i32 %71, %72
  br i1 %73, label %74, label %86

74:                                               ; preds = %70
  %75 = load i32, i32* %4, align 4
  %76 = sext i32 %75 to i64
  %77 = getelementptr inbounds [100 x [100 x i32]], [100 x [100 x i32]]* %1, i64 0, i64 %76
  %78 = load i32, i32* %5, align 4
  %79 = sext i32 %78 to i64
  %80 = getelementptr inbounds [100 x i32], [100 x i32]* %77, i64 0, i64 %79
  %81 = load i32, i32* %80, align 4
  %82 = call i32 (i8*, ...) @printf(i8* getelementptr inbounds ([4 x i8], [4 x i8]* @.str.2, i64 0, i64 0), i32 %81)
  br label %83

83:                                               ; preds = %74
  %84 = load i32, i32* %4, align 4
  %85 = add nsw i32 %84, 1
  store i32 %85, i32* %4, align 4
  br label %70

86:                                               ; preds = %70
  %87 = load i32, i32* %2, align 4
  %88 = add nsw i32 %87, 1
  store i32 %88, i32* %2, align 4
  %89 = load i32, i32* %3, align 4
  %90 = load i32, i32* %7, align 4
  %91 = icmp sge i32 %89, %90
  br i1 %91, label %92, label %93

92:                                               ; preds = %86
  br label %143

93:                                               ; preds = %86
  %94 = load i32, i32* %6, align 4
  store i32 %94, i32* %4, align 4
  %95 = load i32, i32* %5, align 4
  %96 = add nsw i32 %95, -1
  store i32 %96, i32* %5, align 4
  br label %97

97:                                               ; preds = %110, %93
  %98 = load i32, i32* %5, align 4
  %99 = load i32, i32* %3, align 4
  %100 = icmp sge i32 %98, %99
  br i1 %100, label %101, label %113

101:                                              ; preds = %97
  %102 = load i32, i32* %4, align 4
  %103 = sext i32 %102 to i64
  %104 = getelementptr inbounds [100 x [100 x i32]], [100 x [100 x i32]]* %1, i64 0, i64 %103
  %105 = load i32, i32* %5, align 4
  %106 = sext i32 %105 to i64
  %107 = getelementptr inbounds [100 x i32], [100 x i32]* %104, i64 0, i64 %106
  %108 = load i32, i32* %107, align 4
  %109 = call i32 (i8*, ...) @printf(i8* getelementptr inbounds ([4 x i8], [4 x i8]* @.str.2, i64 0, i64 0), i32 %108)
  br label %110

110:                                              ; preds = %101
  %111 = load i32, i32* %5, align 4
  %112 = add nsw i32 %111, -1
  store i32 %112, i32* %5, align 4
  br label %97

113:                                              ; preds = %97
  %114 = load i32, i32* %7, align 4
  %115 = add nsw i32 %114, -1
  store i32 %115, i32* %7, align 4
  %116 = load i32, i32* %2, align 4
  %117 = load i32, i32* %6, align 4
  %118 = icmp sge i32 %116, %117
  br i1 %118, label %119, label %120

119:                                              ; preds = %113
  br label %143

120:                                              ; preds = %113
  %121 = load i32, i32* %3, align 4
  store i32 %121, i32* %5, align 4
  %122 = load i32, i32* %4, align 4
  %123 = add nsw i32 %122, -1
  store i32 %123, i32* %4, align 4
  br label %124

124:                                              ; preds = %137, %120
  %125 = load i32, i32* %4, align 4
  %126 = load i32, i32* %2, align 4
  %127 = icmp sge i32 %125, %126
  br i1 %127, label %128, label %140

128:                                              ; preds = %124
  %129 = load i32, i32* %4, align 4
  %130 = sext i32 %129 to i64
  %131 = getelementptr inbounds [100 x [100 x i32]], [100 x [100 x i32]]* %1, i64 0, i64 %130
  %132 = load i32, i32* %5, align 4
  %133 = sext i32 %132 to i64
  %134 = getelementptr inbounds [100 x i32], [100 x i32]* %131, i64 0, i64 %133
  %135 = load i32, i32* %134, align 4
  %136 = call i32 (i8*, ...) @printf(i8* getelementptr inbounds ([4 x i8], [4 x i8]* @.str.2, i64 0, i64 0), i32 %135)
  br label %137

137:                                              ; preds = %128
  %138 = load i32, i32* %4, align 4
  %139 = add nsw i32 %138, -1
  store i32 %139, i32* %4, align 4
  br label %124

140:                                              ; preds = %124
  %141 = load i32, i32* %6, align 4
  %142 = add nsw i32 %141, -1
  store i32 %142, i32* %6, align 4
  br label %34

143:                                              ; preds = %119, %92, %65, %38
  ret void
}

declare dso_local i32 @__isoc99_scanf(i8*, ...) #1

declare dso_local i32 @printf(i8*, ...) #1


!llvm.module.flags = !{!0}
!llvm.ident = !{!1}

!0 = !{i32 1, !"wchar_size", i32 4}
!1 = !{!"clang version 10.0.0-4ubuntu1 "}
